target datalayout = "e-m:e-p270:32:32-p271:32:32-p272:64:64-i64:64-i128:128-f80:128-n8:16:32:64-S128"
target triple = "x86_64-pc-linux-gnu"

%struct.bio_st = type { ptr, ptr, ptr, i32, i32, i32, i32, i32, i32, ptr, ptr, i64, i64 }
%struct.bio_f_buffer_ctx_struct = type { i32, i32, ptr, i32, i32, ptr, i32, i32 }

; Function Attrs: nounwind uwtable
define internal i32 @buffer_write(ptr noundef %0, ptr noundef %1, i32 noundef %2) #0 {
  %4 = alloca i32, align 4
  %5 = alloca ptr, align 8
  %6 = alloca ptr, align 8
  %7 = alloca i32, align 4
  %8 = alloca i32, align 4
  %9 = alloca i32, align 4
  %10 = alloca ptr, align 8
  %11 = alloca i32, align 4
  store ptr %0, ptr %5, align 8, !tbaa !6
  store ptr %1, ptr %6, align 8, !tbaa !13
  store i32 %2, ptr %7, align 4, !tbaa !11
  call void @llvm.lifetime.start.p0(i64 4, ptr %8) #8
  call void @llvm.lifetime.start.p0(i64 4, ptr %9) #8
  store i32 0, ptr %9, align 4, !tbaa !11
  call void @llvm.lifetime.start.p0(i64 8, ptr %10) #8
  %12 = load ptr, ptr %5, align 8, !tbaa !6
  %13 = getelementptr inbounds nuw %struct.bio_st, ptr %12, i32 0, i32 9
  %14 = load ptr, ptr %13, align 8, !tbaa !15
  store ptr %14, ptr %10, align 8, !tbaa !19
  %15 = load ptr, ptr %10, align 8, !tbaa !19
  %16 = icmp eq ptr %15, null
  br i1 %16, label %22, label %17

17:                                               ; preds = %3
  %18 = load ptr, ptr %5, align 8, !tbaa !6
  %19 = getelementptr inbounds nuw %struct.bio_st, ptr %18, i32 0, i32 10
  %20 = load ptr, ptr %19, align 8, !tbaa !21
  %21 = icmp eq ptr %20, null
  br i1 %21, label %22, label %23

22:                                               ; preds = %17, %3
  store i32 0, ptr %4, align 4
  store i32 1, ptr %11, align 4
  br label %205

23:                                               ; preds = %17
  %24 = load ptr, ptr %5, align 8, !tbaa !6
  call void @BIO_clear_retry_flags(ptr noundef %24)
  br label %25

25:                                               ; preds = %204, %23
  %26 = load ptr, ptr %10, align 8, !tbaa !19
  %27 = getelementptr inbounds nuw %struct.bio_f_buffer_ctx_struct, ptr %26, i32 0, i32 1
  %28 = load i32, ptr %27, align 4, !tbaa !22
  %29 = load ptr, ptr %10, align 8, !tbaa !19
  %30 = getelementptr inbounds nuw %struct.bio_f_buffer_ctx_struct, ptr %29, i32 0, i32 7
  %31 = load i32, ptr %30, align 4, !tbaa !24
  %32 = load ptr, ptr %10, align 8, !tbaa !19
  %33 = getelementptr inbounds nuw %struct.bio_f_buffer_ctx_struct, ptr %32, i32 0, i32 6
  %34 = load i32, ptr %33, align 8, !tbaa !25
  %35 = add nsw i32 %31, %34
  %36 = sub nsw i32 %28, %35
  store i32 %36, ptr %8, align 4, !tbaa !11
  %37 = load i32, ptr %8, align 4, !tbaa !11
  %38 = load i32, ptr %7, align 4, !tbaa !11
  %39 = icmp sge i32 %37, %38
  br i1 %39, label %40, label %64

40:                                               ; preds = %25
  %41 = load ptr, ptr %10, align 8, !tbaa !19
  %42 = getelementptr inbounds nuw %struct.bio_f_buffer_ctx_struct, ptr %41, i32 0, i32 5
  %43 = load ptr, ptr %42, align 8, !tbaa !26
  %44 = load ptr, ptr %10, align 8, !tbaa !19
  %45 = getelementptr inbounds nuw %struct.bio_f_buffer_ctx_struct, ptr %44, i32 0, i32 7
  %46 = load i32, ptr %45, align 4, !tbaa !24
  %47 = load ptr, ptr %10, align 8, !tbaa !19
  %48 = getelementptr inbounds nuw %struct.bio_f_buffer_ctx_struct, ptr %47, i32 0, i32 6
  %49 = load i32, ptr %48, align 8, !tbaa !25
  %50 = add nsw i32 %46, %49
  %51 = sext i32 %50 to i64
  %52 = getelementptr inbounds i8, ptr %43, i64 %51
  %53 = load ptr, ptr %6, align 8, !tbaa !13
  %54 = load i32, ptr %7, align 4, !tbaa !11
  %55 = sext i32 %54 to i64
  call void @llvm.memcpy.p0.p0.i64(ptr align 1 %52, ptr align 1 %53, i64 %55, i1 false)
  %56 = load i32, ptr %7, align 4, !tbaa !11
  %57 = load ptr, ptr %10, align 8, !tbaa !19
  %58 = getelementptr inbounds nuw %struct.bio_f_buffer_ctx_struct, ptr %57, i32 0, i32 6
  %59 = load i32, ptr %58, align 8, !tbaa !25
  %60 = add nsw i32 %59, %56
  store i32 %60, ptr %58, align 8, !tbaa !25
  %61 = load i32, ptr %9, align 4, !tbaa !11
  %62 = load i32, ptr %7, align 4, !tbaa !11
  %63 = add nsw i32 %61, %62
  store i32 %63, ptr %4, align 4
  store i32 1, ptr %11, align 4
  br label %205

64:                                               ; preds = %25
  %65 = load ptr, ptr %10, align 8, !tbaa !19
  %66 = getelementptr inbounds nuw %struct.bio_f_buffer_ctx_struct, ptr %65, i32 0, i32 6
  %67 = load i32, ptr %66, align 8, !tbaa !25
  %68 = icmp ne i32 %67, 0
  br i1 %68, label %69, label %155

69:                                               ; preds = %64
  %70 = load i32, ptr %8, align 4, !tbaa !11
  %71 = icmp sgt i32 %70, 0
  br i1 %71, label %72, label %103

72:                                               ; preds = %69
  %73 = load ptr, ptr %10, align 8, !tbaa !19
  %74 = getelementptr inbounds nuw %struct.bio_f_buffer_ctx_struct, ptr %73, i32 0, i32 5
  %75 = load ptr, ptr %74, align 8, !tbaa !26
  %76 = load ptr, ptr %10, align 8, !tbaa !19
  %77 = getelementptr inbounds nuw %struct.bio_f_buffer_ctx_struct, ptr %76, i32 0, i32 7
  %78 = load i32, ptr %77, align 4, !tbaa !24
  %79 = load ptr, ptr %10, align 8, !tbaa !19
  %80 = getelementptr inbounds nuw %struct.bio_f_buffer_ctx_struct, ptr %79, i32 0, i32 6
  %81 = load i32, ptr %80, align 8, !tbaa !25
  %82 = add nsw i32 %78, %81
  %83 = sext i32 %82 to i64
  %84 = getelementptr inbounds i8, ptr %75, i64 %83
  %85 = load ptr, ptr %6, align 8, !tbaa !13
  %86 = load i32, ptr %8, align 4, !tbaa !11
  %87 = sext i32 %86 to i64
  call void @llvm.memcpy.p0.p0.i64(ptr align 1 %84, ptr align 1 %85, i64 %87, i1 false)
  %88 = load i32, ptr %8, align 4, !tbaa !11
  %89 = load ptr, ptr %6, align 8, !tbaa !13
  %90 = sext i32 %88 to i64
  %91 = getelementptr inbounds i8, ptr %89, i64 %90
  store ptr %91, ptr %6, align 8, !tbaa !13
  %92 = load i32, ptr %8, align 4, !tbaa !11
  %93 = load i32, ptr %7, align 4, !tbaa !11
  %94 = sub nsw i32 %93, %92
  store i32 %94, ptr %7, align 4, !tbaa !11
  %95 = load i32, ptr %8, align 4, !tbaa !11
  %96 = load i32, ptr %9, align 4, !tbaa !11
  %97 = add nsw i32 %96, %95
  store i32 %97, ptr %9, align 4, !tbaa !11
  %98 = load i32, ptr %8, align 4, !tbaa !11
  %99 = load ptr, ptr %10, align 8, !tbaa !19
  %100 = getelementptr inbounds nuw %struct.bio_f_buffer_ctx_struct, ptr %99, i32 0, i32 6
  %101 = load i32, ptr %100, align 8, !tbaa !25
  %102 = add nsw i32 %101, %98
  store i32 %102, ptr %100, align 8, !tbaa !25
  br label %103

103:                                              ; preds = %72, %69
  br label %104

104:                                              ; preds = %153, %103
  %105 = load ptr, ptr %5, align 8, !tbaa !6
  %106 = getelementptr inbounds nuw %struct.bio_st, ptr %105, i32 0, i32 10
  %107 = load ptr, ptr %106, align 8, !tbaa !21
  %108 = load ptr, ptr %10, align 8, !tbaa !19
  %109 = getelementptr inbounds nuw %struct.bio_f_buffer_ctx_struct, ptr %108, i32 0, i32 5
  %110 = load ptr, ptr %109, align 8, !tbaa !26
  %111 = load ptr, ptr %10, align 8, !tbaa !19
  %112 = getelementptr inbounds nuw %struct.bio_f_buffer_ctx_struct, ptr %111, i32 0, i32 7
  %113 = load i32, ptr %112, align 4, !tbaa !24
  %114 = sext i32 %113 to i64
  %115 = getelementptr inbounds i8, ptr %110, i64 %114
  %116 = load ptr, ptr %10, align 8, !tbaa !19
  %117 = getelementptr inbounds nuw %struct.bio_f_buffer_ctx_struct, ptr %116, i32 0, i32 6
  %118 = load i32, ptr %117, align 8, !tbaa !25
  %119 = call i32 @BIO_write(ptr noundef %107, ptr noundef %115, i32 noundef %118)
  store i32 %119, ptr %8, align 4, !tbaa !11
  %120 = load i32, ptr %8, align 4, !tbaa !11
  %121 = icmp sle i32 %120, 0
  br i1 %121, label %122, label %137

122:                                              ; preds = %104
  %123 = load ptr, ptr %5, align 8, !tbaa !6
  call void @BIO_copy_next_retry(ptr noundef %123)
  %124 = load i32, ptr %8, align 4, !tbaa !11
  %125 = icmp slt i32 %124, 0
  br i1 %125, label %126, label %135

126:                                              ; preds = %122
  %127 = load i32, ptr %9, align 4, !tbaa !11
  %128 = icmp sgt i32 %127, 0
  br i1 %128, label %129, label %131

129:                                              ; preds = %126
  %130 = load i32, ptr %9, align 4, !tbaa !11
  br label %133

131:                                              ; preds = %126
  %132 = load i32, ptr %8, align 4, !tbaa !11
  br label %133

133:                                              ; preds = %131, %129
  %134 = phi i32 [ %130, %129 ], [ %132, %131 ]
  store i32 %134, ptr %4, align 4
  store i32 1, ptr %11, align 4
  br label %205

135:                                              ; preds = %122
  %136 = load i32, ptr %9, align 4, !tbaa !11
  store i32 %136, ptr %4, align 4
  store i32 1, ptr %11, align 4
  br label %205

137:                                              ; preds = %104
  %138 = load i32, ptr %8, align 4, !tbaa !11
  %139 = load ptr, ptr %10, align 8, !tbaa !19
  %140 = getelementptr inbounds nuw %struct.bio_f_buffer_ctx_struct, ptr %139, i32 0, i32 7
  %141 = load i32, ptr %140, align 4, !tbaa !24
  %142 = add nsw i32 %141, %138
  store i32 %142, ptr %140, align 4, !tbaa !24
  %143 = load i32, ptr %8, align 4, !tbaa !11
  %144 = load ptr, ptr %10, align 8, !tbaa !19
  %145 = getelementptr inbounds nuw %struct.bio_f_buffer_ctx_struct, ptr %144, i32 0, i32 6
  %146 = load i32, ptr %145, align 8, !tbaa !25
  %147 = sub nsw i32 %146, %143
  store i32 %147, ptr %145, align 8, !tbaa !25
  %148 = load ptr, ptr %10, align 8, !tbaa !19
  %149 = getelementptr inbounds nuw %struct.bio_f_buffer_ctx_struct, ptr %148, i32 0, i32 6
  %150 = load i32, ptr %149, align 8, !tbaa !25
  %151 = icmp eq i32 %150, 0
  br i1 %151, label %152, label %153

152:                                              ; preds = %137
  br label %154

153:                                              ; preds = %137
  br label %104

154:                                              ; preds = %152
  br label %155

155:                                              ; preds = %154, %64
  %156 = load ptr, ptr %10, align 8, !tbaa !19
  %157 = getelementptr inbounds nuw %struct.bio_f_buffer_ctx_struct, ptr %156, i32 0, i32 7
  store i32 0, ptr %157, align 4, !tbaa !24
  br label %158

158:                                              ; preds = %203, %155
  %159 = load i32, ptr %7, align 4, !tbaa !11
  %160 = load ptr, ptr %10, align 8, !tbaa !19
  %161 = getelementptr inbounds nuw %struct.bio_f_buffer_ctx_struct, ptr %160, i32 0, i32 1
  %162 = load i32, ptr %161, align 4, !tbaa !22
  %163 = icmp sge i32 %159, %162
  br i1 %163, label %164, label %204

164:                                              ; preds = %158
  %165 = load ptr, ptr %5, align 8, !tbaa !6
  %166 = getelementptr inbounds nuw %struct.bio_st, ptr %165, i32 0, i32 10
  %167 = load ptr, ptr %166, align 8, !tbaa !21
  %168 = load ptr, ptr %6, align 8, !tbaa !13
  %169 = load i32, ptr %7, align 4, !tbaa !11
  %170 = call i32 @BIO_write(ptr noundef %167, ptr noundef %168, i32 noundef %169)
  store i32 %170, ptr %8, align 4, !tbaa !11
  %171 = load i32, ptr %8, align 4, !tbaa !11
  %172 = icmp sle i32 %171, 0
  br i1 %172, label %173, label %188

173:                                              ; preds = %164
  %174 = load ptr, ptr %5, align 8, !tbaa !6
  call void @BIO_copy_next_retry(ptr noundef %174)
  %175 = load i32, ptr %8, align 4, !tbaa !11
  %176 = icmp slt i32 %175, 0
  br i1 %176, label %177, label %186

177:                                              ; preds = %173
  %178 = load i32, ptr %9, align 4, !tbaa !11
  %179 = icmp sgt i32 %178, 0
  br i1 %179, label %180, label %182

180:                                              ; preds = %177
  %181 = load i32, ptr %9, align 4, !tbaa !11
  br label %184

182:                                              ; preds = %177
  %183 = load i32, ptr %8, align 4, !tbaa !11
  br label %184

184:                                              ; preds = %182, %180
  %185 = phi i32 [ %181, %180 ], [ %183, %182 ]
  store i32 %185, ptr %4, align 4
  store i32 1, ptr %11, align 4
  br label %205

186:                                              ; preds = %173
  %187 = load i32, ptr %9, align 4, !tbaa !11
  store i32 %187, ptr %4, align 4
  store i32 1, ptr %11, align 4
  br label %205

188:                                              ; preds = %164
  %189 = load i32, ptr %8, align 4, !tbaa !11
  %190 = load i32, ptr %9, align 4, !tbaa !11
  %191 = add nsw i32 %190, %189
  store i32 %191, ptr %9, align 4, !tbaa !11
  %192 = load i32, ptr %8, align 4, !tbaa !11
  %193 = load ptr, ptr %6, align 8, !tbaa !13
  %194 = sext i32 %192 to i64
  %195 = getelementptr inbounds i8, ptr %193, i64 %194
  store ptr %195, ptr %6, align 8, !tbaa !13
  %196 = load i32, ptr %8, align 4, !tbaa !11
  %197 = load i32, ptr %7, align 4, !tbaa !11
  %198 = sub nsw i32 %197, %196
  store i32 %198, ptr %7, align 4, !tbaa !11
  %199 = load i32, ptr %7, align 4, !tbaa !11
  %200 = icmp eq i32 %199, 0
  br i1 %200, label %201, label %203

201:                                              ; preds = %188
  %202 = load i32, ptr %9, align 4, !tbaa !11
  store i32 %202, ptr %4, align 4
  store i32 1, ptr %11, align 4
  br label %205

203:                                              ; preds = %188
  br label %158, !llvm.loop !27

204:                                              ; preds = %158
  br label %25

205:                                              ; preds = %201, %186, %184, %135, %133, %40, %22
  call void @llvm.lifetime.end.p0(i64 8, ptr %10) #8
  call void @llvm.lifetime.end.p0(i64 4, ptr %9) #8
  call void @llvm.lifetime.end.p0(i64 4, ptr %8) #8
  %206 = load i32, ptr %4, align 4
  ret i32 %206
}