; Function Attrs: nounwind uwtable
define internal i32 @buffer_write(ptr noundef %0, ptr noundef %1, i32 noundef %2) #1 {
  %4 = getelementptr inbounds nuw i8, ptr %0, i64 48
  %5 = load ptr, ptr %4, align 8, !tbaa !6
  %6 = icmp eq ptr %5, null
  br i1 %6, label %.loopexit88, label %7

7:                                                ; preds = %3
  %8 = getelementptr inbounds nuw i8, ptr %0, i64 56
  %9 = load ptr, ptr %8, align 8, !tbaa !16
  %10 = icmp eq ptr %9, null
  br i1 %10, label %.loopexit88, label %11

11:                                               ; preds = %7
  tail call void @BIO_clear_retry_flags(ptr noundef nonnull %0) #11
  %12 = getelementptr inbounds nuw i8, ptr %5, i64 4
  %13 = getelementptr inbounds nuw i8, ptr %5, i64 36
  %14 = getelementptr inbounds nuw i8, ptr %5, i64 32
  %15 = load i32, ptr %12, align 4, !tbaa !17
  %16 = load i32, ptr %13, align 4, !tbaa !19
  %17 = load i32, ptr %14, align 8, !tbaa !20
  %18 = add nsw i32 %17, %16
  %19 = sub nsw i32 %15, %18
  %.not117 = icmp slt i32 %19, %2
  br i1 %.not117, label %.lr.ph, label %._crit_edge

.lr.ph:                                           ; preds = %11
  %20 = getelementptr inbounds nuw i8, ptr %5, i64 24
  br label %33

.loopexit:                                        ; preds = %71
  %21 = load i32, ptr %13, align 4, !tbaa !19
  %22 = load i32, ptr %14, align 8, !tbaa !20
  %23 = add nsw i32 %22, %21
  %24 = sub nsw i32 %72, %23
  %.not = icmp slt i32 %24, %.374
  br i1 %.not, label %33, label %._crit_edge

._crit_edge:                                      ; preds = %.loopexit, %11
  %.075.lcssa = phi ptr [ %1, %11 ], [ %.378, %.loopexit ]
  %.071.lcssa = phi i32 [ %2, %11 ], [ %.374, %.loopexit ]
  %.070.lcssa = phi i32 [ 0, %11 ], [ %.3, %.loopexit ]
  %.lcssa100 = phi i32 [ %18, %11 ], [ %23, %.loopexit ]
  %25 = getelementptr inbounds nuw i8, ptr %5, i64 24
  %26 = load ptr, ptr %25, align 8, !tbaa !21
  %27 = sext i32 %.lcssa100 to i64
  %28 = getelementptr inbounds i8, ptr %26, i64 %27
  %29 = sext i32 %.071.lcssa to i64
  tail call void @llvm.memcpy.p0.p0.i64(ptr align 1 %28, ptr align 1 %.075.lcssa, i64 %29, i1 false)
  %30 = load i32, ptr %14, align 8, !tbaa !20
  %31 = add nsw i32 %30, %.071.lcssa
  store i32 %31, ptr %14, align 8, !tbaa !20
  %32 = add nsw i32 %.070.lcssa, %.071.lcssa
  br label %.loopexit88

33:                                               ; preds = %.lr.ph, %.loopexit
  %.pre137 = phi i32 [ %16, %.lr.ph ], [ %21, %.loopexit ]
  %34 = phi i32 [ %19, %.lr.ph ], [ %24, %.loopexit ]
  %35 = phi i32 [ %18, %.lr.ph ], [ %23, %.loopexit ]
  %36 = phi i32 [ %17, %.lr.ph ], [ %22, %.loopexit ]
  %.070120 = phi i32 [ 0, %.lr.ph ], [ %.3, %.loopexit ]
  %.071119 = phi i32 [ %2, %.lr.ph ], [ %.374, %.loopexit ]
  %.075118 = phi ptr [ %1, %.lr.ph ], [ %.378, %.loopexit ]
  %.not86 = icmp eq i32 %36, 0
  br i1 %.not86, label %.loopexit89, label %37

37:                                               ; preds = %33
  %38 = icmp sgt i32 %34, 0
  br i1 %38, label %39, label %49

39:                                               ; preds = %37
  %40 = load ptr, ptr %20, align 8, !tbaa !21
  %41 = sext i32 %35 to i64
  %42 = getelementptr inbounds i8, ptr %40, i64 %41
  %43 = zext nneg i32 %34 to i64
  tail call void @llvm.memcpy.p0.p0.i64(ptr align 1 %42, ptr align 1 %.075118, i64 %43, i1 false)
  %44 = getelementptr inbounds nuw i8, ptr %.075118, i64 %43
  %45 = sub nsw i32 %.071119, %34
  %46 = add nuw nsw i32 %34, %.070120
  %47 = load i32, ptr %14, align 8, !tbaa !20
  %48 = add nsw i32 %47, %34
  store i32 %48, ptr %14, align 8, !tbaa !20
  %.pre.pre = load i32, ptr %13, align 4, !tbaa !19
  br label %49

49:                                               ; preds = %39, %37
  %.pre = phi i32 [ %.pre.pre, %39 ], [ %.pre137, %37 ]
  %50 = phi i32 [ %48, %39 ], [ %36, %37 ]
  %.277 = phi ptr [ %44, %39 ], [ %.075118, %37 ]
  %.273 = phi i32 [ %45, %39 ], [ %.071119, %37 ]
  %.2 = phi i32 [ %46, %39 ], [ %.070120, %37 ]
  br label %51

51:                                               ; preds = %65, %49
  %52 = phi i32 [ %69, %65 ], [ %50, %49 ]
  %53 = phi i32 [ %67, %65 ], [ %.pre, %49 ]
  %54 = load ptr, ptr %8, align 8, !tbaa !16
  %55 = load ptr, ptr %20, align 8, !tbaa !21
  %56 = sext i32 %53 to i64
  %57 = getelementptr inbounds i8, ptr %55, i64 %56
  %58 = tail call i32 @BIO_write(ptr noundef %54, ptr noundef %57, i32 noundef %52) #11
  %59 = icmp slt i32 %58, 1
  br i1 %59, label %60, label %65

60:                                               ; preds = %51
  tail call void @BIO_copy_next_retry(ptr noundef nonnull %0) #11
  %61 = icmp slt i32 %58, 0
  br i1 %61, label %62, label %.loopexit88

62:                                               ; preds = %60
  %63 = icmp sgt i32 %.2, 0
  %64 = select i1 %63, i32 %.2, i32 %58
  br label %.loopexit88

65:                                               ; preds = %51
  %66 = load i32, ptr %13, align 4, !tbaa !19
  %67 = add nsw i32 %66, %58
  store i32 %67, ptr %13, align 4, !tbaa !19
  %68 = load i32, ptr %14, align 8, !tbaa !20
  %69 = sub nsw i32 %68, %58
  store i32 %69, ptr %14, align 8, !tbaa !20
  %70 = icmp eq i32 %68, %58
  br i1 %70, label %.loopexit89, label %51

.loopexit89:                                      ; preds = %65, %33
  %.176 = phi ptr [ %.075118, %33 ], [ %.277, %65 ]
  %.172 = phi i32 [ %.071119, %33 ], [ %.273, %65 ]
  %.1 = phi i32 [ %.070120, %33 ], [ %.2, %65 ]
  store i32 0, ptr %13, align 4, !tbaa !19
  br label %71

71:                                               ; preds = %82, %.loopexit89
  %.378 = phi ptr [ %.176, %.loopexit89 ], [ %85, %82 ]
  %.374 = phi i32 [ %.172, %.loopexit89 ], [ %86, %82 ]
  %.3 = phi i32 [ %.1, %.loopexit89 ], [ %83, %82 ]
  %72 = load i32, ptr %12, align 4, !tbaa !17
  %.not87 = icmp slt i32 %.374, %72
  br i1 %.not87, label %.loopexit, label %73

73:                                               ; preds = %71
  %74 = load ptr, ptr %8, align 8, !tbaa !16
  %75 = tail call i32 @BIO_write(ptr noundef %74, ptr noundef %.378, i32 noundef %.374) #11
  %76 = icmp slt i32 %75, 1
  br i1 %76, label %77, label %82

77:                                               ; preds = %73
  tail call void @BIO_copy_next_retry(ptr noundef nonnull %0) #11
  %78 = icmp slt i32 %75, 0
  br i1 %78, label %79, label %.loopexit88

79:                                               ; preds = %77
  %80 = icmp sgt i32 %.3, 0
  %81 = select i1 %80, i32 %.3, i32 %75
  br label %.loopexit88

82:                                               ; preds = %73
  %83 = add nuw nsw i32 %75, %.3
  %84 = zext nneg i32 %75 to i64
  %85 = getelementptr inbounds nuw i8, ptr %.378, i64 %84
  %86 = sub nsw i32 %.374, %75
  %87 = icmp eq i32 %86, 0
  br i1 %87, label %.loopexit88, label %71, !llvm.loop !22

.loopexit88:                                      ; preds = %82, %77, %60, %3, %7, %79, %62, %._crit_edge
  %.0 = phi i32 [ %32, %._crit_edge ], [ %64, %62 ], [ %81, %79 ], [ 0, %7 ], [ 0, %3 ], [ %.2, %60 ], [ %.3, %77 ], [ %83, %82 ]
  ret i32 %.0
}